target datalayout = "e-m:e-p270:32:32-p271:32:32-p272:64:64-i64:64-i128:128-f80:128-n8:16:32:64-S128"
target triple = "x86_64-pc-linux-gnu"

%"struct.std::atomic" = type { %"struct.std::__atomic_base" }
%"struct.std::__atomic_base" = type { i64 }
%"struct.std::atomic.10" = type { %"struct.std::__atomic_base.11" }
%"struct.std::__atomic_base.11" = type { ptr }

@_ZL14mi_out_default = internal global ptr null, align 8
@_ZL10mi_out_arg = internal global %"struct.std::atomic.10" zeroinitializer, align 8
@_ZL7out_len = internal global %"struct.std::atomic" zeroinitializer, align 8
@_ZL7out_buf = internal global [16385 x i8] zeroinitializer, align 16

; Function Attrs: mustprogress nounwind uwtable
define linkonce_odr noundef i32 @_ZStanSt12memory_orderSt23__memory_order_modifier(i32 noundef %0, i32 noundef %1) #5 comdat {
  %3 = alloca i32, align 4
  %4 = alloca i32, align 4
  store i32 %0, ptr %3, align 4, !tbaa !32
  store i32 %1, ptr %4, align 4, !tbaa !428
  %5 = load i32, ptr %3, align 4, !tbaa !32
  %6 = load i32, ptr %4, align 4, !tbaa !428
  %7 = and i32 %5, %6
  ret i32 %7
}

; Function Attrs: alwaysinline mustprogress nounwind uwtable
define linkonce_odr hidden noundef i64 @_ZNSt13__atomic_baseImE9fetch_addEmSt12memory_order(ptr noundef nonnull align 8 dereferenceable(8) %0, i64 noundef %1, i32 noundef %2) #17 comdat align 2 {
  %4 = alloca ptr, align 8
  %5 = alloca i64, align 8
  %6 = alloca i32, align 4
  %7 = alloca i64, align 8
  %8 = alloca i64, align 8
  store ptr %0, ptr %4, align 8, !tbaa !164
  store i64 %1, ptr %5, align 8, !tbaa !18
  store i32 %2, ptr %6, align 4, !tbaa !32
  %9 = load ptr, ptr %4, align 8
  %10 = getelementptr inbounds nuw %"struct.std::__atomic_base", ptr %9, i32 0, i32 0
  %11 = load i32, ptr %6, align 4, !tbaa !32
  %12 = load i64, ptr %5, align 8, !tbaa !18
  store i64 %12, ptr %7, align 8, !tbaa !18
  switch i32 %11, label %13 [
    i32 1, label %16
    i32 2, label %16
    i32 3, label %19
    i32 4, label %22
    i32 5, label %25
  ]

13:                                               ; preds = %3
  %14 = load i64, ptr %7, align 8
  %15 = atomicrmw add ptr %10, i64 %14 monotonic, align 8
  store i64 %15, ptr %8, align 8
  br label %28

16:                                               ; preds = %3, %3
  %17 = load i64, ptr %7, align 8
  %18 = atomicrmw add ptr %10, i64 %17 acquire, align 8
  store i64 %18, ptr %8, align 8
  br label %28

19:                                               ; preds = %3
  %20 = load i64, ptr %7, align 8
  %21 = atomicrmw add ptr %10, i64 %20 release, align 8
  store i64 %21, ptr %8, align 8
  br label %28

22:                                               ; preds = %3
  %23 = load i64, ptr %7, align 8
  %24 = atomicrmw add ptr %10, i64 %23 acq_rel, align 8
  store i64 %24, ptr %8, align 8
  br label %28

25:                                               ; preds = %3
  %26 = load i64, ptr %7, align 8
  %27 = atomicrmw add ptr %10, i64 %26 seq_cst, align 8
  store i64 %27, ptr %8, align 8
  br label %28

28:                                               ; preds = %25, %22, %19, %16, %13
  %29 = load i64, ptr %8, align 8, !tbaa !18
  ret i64 %29
}

; Function Attrs: alwaysinline mustprogress nounwind uwtable
define linkonce_odr hidden void @_ZNSt13__atomic_baseIPvE5storeES0_St12memory_order(ptr noundef nonnull align 8 dereferenceable(8) %0, ptr noundef %1, i32 noundef %2) #17 comdat align 2 {
  %4 = alloca ptr, align 8
  %5 = alloca ptr, align 8
  %6 = alloca i32, align 4
  %7 = alloca i32, align 4
  %8 = alloca ptr, align 8
  store ptr %0, ptr %4, align 8, !tbaa !492
  store ptr %1, ptr %5, align 8, !tbaa !8
  store i32 %2, ptr %6, align 4, !tbaa !32
  %9 = load ptr, ptr %4, align 8
  call void @llvm.lifetime.start.p0(i64 4, ptr %7) #19
  %10 = load i32, ptr %6, align 4, !tbaa !32
  %11 = call noundef i32 @_ZStanSt12memory_orderSt23__memory_order_modifier(i32 noundef %10, i32 noundef 65535)
  store i32 %11, ptr %7, align 4, !tbaa !32
  br label %12

12:                                               ; preds = %3
  br label %13

13:                                               ; preds = %12
  br label %14

14:                                               ; preds = %13
  br label %15

15:                                               ; preds = %14
  br label %16

16:                                               ; preds = %15
  br label %17

17:                                               ; preds = %16
  br label %18

18:                                               ; preds = %17
  br label %19

19:                                               ; preds = %18
  br label %20

20:                                               ; preds = %19
  %21 = getelementptr inbounds nuw %"struct.std::__atomic_base.11", ptr %9, i32 0, i32 0
  %22 = load i32, ptr %6, align 4, !tbaa !32
  %23 = load ptr, ptr %5, align 8, !tbaa !8
  store ptr %23, ptr %8, align 8, !tbaa !8
  switch i32 %22, label %24 [
    i32 3, label %26
    i32 5, label %28
  ]

24:                                               ; preds = %20
  %25 = load i64, ptr %8, align 8
  store atomic i64 %25, ptr %21 monotonic, align 8
  br label %30

26:                                               ; preds = %20
  %27 = load i64, ptr %8, align 8
  store atomic i64 %27, ptr %21 release, align 8
  br label %30

28:                                               ; preds = %20
  %29 = load i64, ptr %8, align 8
  store atomic i64 %29, ptr %21 seq_cst, align 8
  br label %30

30:                                               ; preds = %28, %26, %24
  call void @llvm.lifetime.end.p0(i64 4, ptr %7) #19
  ret void
}

; Function Attrs: inlinehint mustprogress nounwind uwtable
define linkonce_odr noundef i64 @_ZSt25atomic_fetch_add_explicitImET_PSt6atomicIS0_ENS2_15difference_typeESt12memory_order(ptr noundef %0, i64 noundef %1, i32 noundef %2) #3 comdat {
  %4 = alloca ptr, align 8
  %5 = alloca i64, align 8
  %6 = alloca i32, align 4
  store ptr %0, ptr %4, align 8, !tbaa !30
  store i64 %1, ptr %5, align 8, !tbaa !18
  store i32 %2, ptr %6, align 4, !tbaa !32
  %7 = load ptr, ptr %4, align 8, !tbaa !30
  %8 = load i64, ptr %5, align 8, !tbaa !18
  %9 = load i32, ptr %6, align 4, !tbaa !32
  %10 = call noundef i64 @_ZNSt13__atomic_baseImE9fetch_addEmSt12memory_order(ptr noundef nonnull align 8 dereferenceable(8) %7, i64 noundef %8, i32 noundef %9) #19
  ret i64 %10
}

; Function Attrs: mustprogress nounwind uwtable
define linkonce_odr hidden void @_ZNSt6atomicIPvE5storeES0_St12memory_order(ptr noundef nonnull align 8 dereferenceable(8) %0, ptr noundef %1, i32 noundef %2) #5 comdat align 2 {
  %4 = alloca ptr, align 8
  %5 = alloca ptr, align 8
  %6 = alloca i32, align 4
  store ptr %0, ptr %4, align 8, !tbaa !282
  store ptr %1, ptr %5, align 8, !tbaa !8
  store i32 %2, ptr %6, align 4, !tbaa !32
  %7 = load ptr, ptr %4, align 8
  %8 = getelementptr inbounds nuw %"struct.std::atomic.10", ptr %7, i32 0, i32 0
  %9 = load ptr, ptr %5, align 8, !tbaa !8
  %10 = load i32, ptr %6, align 4, !tbaa !32
  call void @_ZNSt13__atomic_baseIPvE5storeES0_St12memory_order(ptr noundef nonnull align 8 dereferenceable(8) %8, ptr noundef %9, i32 noundef %10) #19
  ret void
}

; Function Attrs: mustprogress uwtable
define internal void @_ZL16mi_out_buf_flushPFvPKcPvEbS1_(ptr noundef %0, i1 noundef zeroext %1, ptr noundef %2) #0 {
  %4 = alloca ptr, align 8
  %5 = alloca i8, align 1
  %6 = alloca ptr, align 8
  %7 = alloca i64, align 8
  store ptr %0, ptr %4, align 8, !tbaa !8
  %8 = zext i1 %1 to i8
  store i8 %8, ptr %5, align 1, !tbaa !23
  store ptr %2, ptr %6, align 8, !tbaa !8
  %9 = load ptr, ptr %4, align 8, !tbaa !8
  %10 = icmp eq ptr %9, null
  br i1 %10, label %11, label %12

11:                                               ; preds = %3
  br label %31

12:                                               ; preds = %3
  call void @llvm.lifetime.start.p0(i64 8, ptr %7) #19
  %13 = load i8, ptr %5, align 1, !tbaa !23, !range !25, !noundef !26
  %14 = trunc i8 %13 to i1
  %15 = select i1 %14, i64 16384, i64 1
  %16 = call noundef i64 @_ZSt25atomic_fetch_add_explicitImET_PSt6atomicIS0_ENS2_15difference_typeESt12memory_order(ptr noundef @_ZL7out_len, i64 noundef %15, i32 noundef 4) #19
  store i64 %16, ptr %7, align 8, !tbaa !18
  %17 = load i64, ptr %7, align 8, !tbaa !18
  %18 = icmp ugt i64 %17, 16384
  br i1 %18, label %19, label %20

19:                                               ; preds = %12
  store i64 16384, ptr %7, align 8, !tbaa !18
  br label %20

20:                                               ; preds = %19, %12
  %21 = load i64, ptr %7, align 8, !tbaa !18
  %22 = getelementptr inbounds nuw [16385 x i8], ptr @_ZL7out_buf, i64 0, i64 %21
  store i8 0, ptr %22, align 1, !tbaa !28
  %23 = load ptr, ptr %4, align 8, !tbaa !8
  %24 = load ptr, ptr %6, align 8, !tbaa !8
  call void %23(ptr noundef @_ZL7out_buf, ptr noundef %24)
  %25 = load i8, ptr %5, align 1, !tbaa !23, !range !25, !noundef !26
  %26 = trunc i8 %25 to i1
  br i1 %26, label %30, label %27

27:                                               ; preds = %20
  %28 = load i64, ptr %7, align 8, !tbaa !18
  %29 = getelementptr inbounds nuw [16385 x i8], ptr @_ZL7out_buf, i64 0, i64 %28
  store i8 10, ptr %29, align 1, !tbaa !28
  br label %30

30:                                               ; preds = %27, %20
  call void @llvm.lifetime.end.p0(i64 8, ptr %7) #19
  br label %31

31:                                               ; preds = %30, %11
  ret void
}

; Function Attrs: inlinehint mustprogress nounwind uwtable
define linkonce_odr void @_ZSt21atomic_store_explicitIPvEvPSt6atomicIT_ENSt15__type_identityIS2_E4typeESt12memory_order(ptr noundef %0, ptr noundef %1, i32 noundef %2) #3 comdat {
  %4 = alloca ptr, align 8
  %5 = alloca ptr, align 8
  %6 = alloca i32, align 4
  store ptr %0, ptr %4, align 8, !tbaa !282
  store ptr %1, ptr %5, align 8, !tbaa !8
  store i32 %2, ptr %6, align 4, !tbaa !32
  %7 = load ptr, ptr %4, align 8, !tbaa !282
  %8 = load ptr, ptr %5, align 8, !tbaa !8
  %9 = load i32, ptr %6, align 4, !tbaa !32
  call void @_ZNSt6atomicIPvE5storeES0_St12memory_order(ptr noundef nonnull align 8 dereferenceable(8) %7, ptr noundef %8, i32 noundef %9) #19
  ret void
}

; Function Attrs: mustprogress nounwind uwtable
define void @mi_register_output(ptr noundef %0, ptr noundef %1) #5 personality ptr @__gxx_personality_v0 {
  %3 = alloca ptr, align 8
  %4 = alloca ptr, align 8
  store ptr %0, ptr %3, align 8, !tbaa !8
  store ptr %1, ptr %4, align 8, !tbaa !8
  %5 = load ptr, ptr %3, align 8, !tbaa !8
  %6 = icmp eq ptr %5, null
  br i1 %6, label %7, label %8

7:                                                ; preds = %2
  br label %10

8:                                                ; preds = %2
  %9 = load ptr, ptr %3, align 8, !tbaa !8
  br label %10

10:                                               ; preds = %8, %7
  %11 = phi ptr [ @_ZL13mi_out_stderrPKcPv, %7 ], [ %9, %8 ]
  store volatile ptr %11, ptr @_ZL14mi_out_default, align 8, !tbaa !8
  %12 = load ptr, ptr %4, align 8, !tbaa !8
  call void @_ZSt21atomic_store_explicitIPvEvPSt6atomicIT_ENSt15__type_identityIS2_E4typeESt12memory_order(ptr noundef @_ZL10mi_out_arg, ptr noundef %12, i32 noundef 3) #19
  %13 = load ptr, ptr %3, align 8, !tbaa !8
  %14 = icmp ne ptr %13, null
  br i1 %14, label %15, label %19

15:                                               ; preds = %10
  %16 = load ptr, ptr %3, align 8, !tbaa !8
  %17 = load ptr, ptr %4, align 8, !tbaa !8
  invoke void @_ZL16mi_out_buf_flushPFvPKcPvEbS1_(ptr noundef %16, i1 noundef zeroext true, ptr noundef %17)
          to label %18 unwind label %20

18:                                               ; preds = %15
  br label %19

19:                                               ; preds = %18, %10
  ret void

20:                                               ; preds = %15
  %21 = landingpad { ptr, i32 }
          catch ptr null
  %22 = extractvalue { ptr, i32 } %21, 0
  call void @__clang_call_terminate(ptr %22) #20
  unreachable
}