; Function Attrs: mustprogress nounwind uwtable
define void @mi_register_output(ptr noundef %0, ptr noundef %1) local_unnamed_addr #3 personality ptr @__gxx_personality_v0 {
  %3 = icmp eq ptr %0, null
  %4 = select i1 %3, ptr @_ZL13mi_out_stderrPKcPv, ptr %0
  store volatile ptr %4, ptr @_ZL14mi_out_default, align 8, !tbaa !64
  %5 = ptrtoint ptr %1 to i64
  store atomic i64 %5, ptr @_ZL10mi_out_arg.0 release, align 8
  br i1 %3, label %_ZL16mi_out_buf_flushPFvPKcPvEbS1_.exit, label %6

6:                                                ; preds = %2
  %7 = atomicrmw add ptr @_ZL7out_len, i64 16384 acq_rel, align 8
  %spec.store.select.i = tail call i64 @llvm.umin.i64(i64 %7, i64 16384)
  %8 = getelementptr inbounds nuw [16385 x i8], ptr @_ZL7out_buf, i64 0, i64 %spec.store.select.i
  store i8 0, ptr %8, align 1, !tbaa !25
  invoke void %0(ptr noundef nonnull @_ZL7out_buf, ptr noundef %1)
          to label %_ZL16mi_out_buf_flushPFvPKcPvEbS1_.exit unwind label %9

_ZL16mi_out_buf_flushPFvPKcPvEbS1_.exit:          ; preds = %6, %2
  ret void

9:                                                ; preds = %6
  %10 = landingpad { ptr, i32 }
          catch ptr null
  %11 = extractvalue { ptr, i32 } %10, 0
  tail call void @__clang_call_terminate(ptr %11) #56
  unreachable
}